
a1.elf:     file format elf32-littlearm

Sections:
Idx Name          Size      VMA       LMA       File off  Algn
  0 .text         000004e4  00000000  00000000  00001000  2**2
                  CONTENTS, ALLOC, LOAD, READONLY, CODE
  1 .relocate     00000004  20000000  000004e4  00002000  2**2
                  CONTENTS, ALLOC, LOAD, DATA
  2 .bkupram      00000000  47000000  47000000  00002004  2**0
                  CONTENTS
  3 .qspi         00000000  04000000  04000000  00002004  2**0
                  CONTENTS
  4 .bss          000001b4  20000004  000004e8  00002004  2**2
                  ALLOC
  5 .stack        00010000  200001b8  0000069c  00002004  2**0
                  ALLOC
  6 .ARM.attributes 0000002a  00000000  00000000  00002004  2**0
                  CONTENTS, READONLY
  7 .comment      00000045  00000000  00000000  0000202e  2**0
                  CONTENTS, READONLY
  8 .debug_frame  000001c0  00000000  00000000  00002074  2**2
                  CONTENTS, READONLY, DEBUGGING, OCTETS

Disassembly of section .text:

00000000 <exception_table>:
   0:	b8 01 01 20 fd 02 00 00 99 03 00 00 99 03 00 00     ... ............
  10:	99 03 00 00 99 03 00 00 99 03 00 00 00 00 00 00     ................
	...
  2c:	99 03 00 00 99 03 00 00 00 00 00 00 99 03 00 00     ................
  3c:	99 03 00 00 99 03 00 00 99 03 00 00 99 03 00 00     ................
  4c:	99 03 00 00 99 03 00 00 99 03 00 00 99 03 00 00     ................
  5c:	99 03 00 00 99 03 00 00 99 03 00 00 99 03 00 00     ................
  6c:	99 03 00 00 99 03 00 00 99 03 00 00 99 03 00 00     ................
  7c:	99 03 00 00 99 03 00 00 99 03 00 00 99 03 00 00     ................
  8c:	99 03 00 00 99 03 00 00 99 03 00 00 99 03 00 00     ................
  9c:	99 03 00 00 99 03 00 00 99 03 00 00 99 03 00 00     ................
  ac:	99 03 00 00 99 03 00 00 99 03 00 00 99 03 00 00     ................
  bc:	99 03 00 00 99 03 00 00 99 03 00 00 99 03 00 00     ................
  cc:	99 03 00 00 99 03 00 00 99 03 00 00 99 03 00 00     ................
  dc:	99 03 00 00 99 03 00 00 99 03 00 00 00 00 00 00     ................
	...
  f4:	99 03 00 00 99 03 00 00 99 03 00 00 99 03 00 00     ................
 104:	99 03 00 00 99 03 00 00 99 03 00 00 99 03 00 00     ................
 114:	99 03 00 00 99 03 00 00 99 03 00 00 99 03 00 00     ................
 124:	99 03 00 00 99 03 00 00 99 03 00 00 99 03 00 00     ................
 134:	99 03 00 00 99 03 00 00 99 03 00 00 99 03 00 00     ................
 144:	99 03 00 00 99 03 00 00 99 03 00 00 99 03 00 00     ................
 154:	99 03 00 00 00 00 00 00 00 00 00 00 00 00 00 00     ................
	...
 178:	99 03 00 00 99 03 00 00 99 03 00 00 99 03 00 00     ................
 188:	99 03 00 00 99 03 00 00 00 00 00 00 99 03 00 00     ................
 198:	99 03 00 00 99 03 00 00 99 03 00 00 99 03 00 00     ................
 1a8:	99 03 00 00 99 03 00 00 99 03 00 00 99 03 00 00     ................
 1b8:	99 03 00 00 99 03 00 00 99 03 00 00 99 03 00 00     ................
 1c8:	99 03 00 00 99 03 00 00 99 03 00 00 99 03 00 00     ................
 1d8:	99 03 00 00 99 03 00 00 99 03 00 00 99 03 00 00     ................
 1e8:	99 03 00 00 99 03 00 00 99 03 00 00 99 03 00 00     ................
 1f8:	99 03 00 00 99 03 00 00 99 03 00 00 00 00 00 00     ................
 208:	00 00 00 00 99 03 00 00 99 03 00 00 99 03 00 00     ................
 218:	99 03 00 00 99 03 00 00 99 03 00 00 99 03 00 00     ................
 228:	99 03 00 00 99 03 00 00 99 03 00 00 99 03 00 00     ................
 238:	99 03 00 00 99 03 00 00 99 03 00 00 99 03 00 00     ................
 248:	99 03 00 00 99 03 00 00 99 03 00 00 99 03 00 00     ................
 258:	99 03 00 00 99 03 00 00                             ........

00000260 <deregister_tm_clones>:
 260:	4803      	ldr	r0, [pc, #12]	@ (270 <deregister_tm_clones+0x10>)
 262:	4b04      	ldr	r3, [pc, #16]	@ (274 <deregister_tm_clones+0x14>)
 264:	4283      	cmp	r3, r0
 266:	d002      	beq.n	26e <deregister_tm_clones+0xe>
 268:	4b03      	ldr	r3, [pc, #12]	@ (278 <deregister_tm_clones+0x18>)
 26a:	b103      	cbz	r3, 26e <deregister_tm_clones+0xe>
 26c:	4718      	bx	r3
 26e:	4770      	bx	lr
 270:	000004e4 	.word	0x000004e4
 274:	000004e4 	.word	0x000004e4
 278:	00000000 	.word	0x00000000

0000027c <register_tm_clones>:
 27c:	4805      	ldr	r0, [pc, #20]	@ (294 <register_tm_clones+0x18>)
 27e:	4b06      	ldr	r3, [pc, #24]	@ (298 <register_tm_clones+0x1c>)
 280:	1a1b      	subs	r3, r3, r0
 282:	0fd9      	lsrs	r1, r3, #31
 284:	eb01 01a3 	add.w	r1, r1, r3, asr #2
 288:	1049      	asrs	r1, r1, #1
 28a:	d002      	beq.n	292 <register_tm_clones+0x16>
 28c:	4b03      	ldr	r3, [pc, #12]	@ (29c <register_tm_clones+0x20>)
 28e:	b103      	cbz	r3, 292 <register_tm_clones+0x16>
 290:	4718      	bx	r3
 292:	4770      	bx	lr
 294:	000004e4 	.word	0x000004e4
 298:	000004e4 	.word	0x000004e4
 29c:	00000000 	.word	0x00000000

000002a0 <__do_global_dtors_aux>:
 2a0:	b510      	push	{r4, lr}
 2a2:	4c06      	ldr	r4, [pc, #24]	@ (2bc <__do_global_dtors_aux+0x1c>)
 2a4:	7823      	ldrb	r3, [r4, #0]
 2a6:	b943      	cbnz	r3, 2ba <__do_global_dtors_aux+0x1a>
 2a8:	f7ff ffda 	bl	260 <deregister_tm_clones>
 2ac:	4b04      	ldr	r3, [pc, #16]	@ (2c0 <__do_global_dtors_aux+0x20>)
 2ae:	b113      	cbz	r3, 2b6 <__do_global_dtors_aux+0x16>
 2b0:	4804      	ldr	r0, [pc, #16]	@ (2c4 <__do_global_dtors_aux+0x24>)
 2b2:	f3af 8000 	nop.w
 2b6:	2301      	movs	r3, #1
 2b8:	7023      	strb	r3, [r4, #0]
 2ba:	bd10      	pop	{r4, pc}
 2bc:	20000004 	.word	0x20000004
 2c0:	00000000 	.word	0x00000000
 2c4:	000004e4 	.word	0x000004e4

000002c8 <frame_dummy>:
 2c8:	b508      	push	{r3, lr}
 2ca:	4b05      	ldr	r3, [pc, #20]	@ (2e0 <frame_dummy+0x18>)
 2cc:	b11b      	cbz	r3, 2d6 <frame_dummy+0xe>
 2ce:	4905      	ldr	r1, [pc, #20]	@ (2e4 <frame_dummy+0x1c>)
 2d0:	4805      	ldr	r0, [pc, #20]	@ (2e8 <frame_dummy+0x20>)
 2d2:	f3af 8000 	nop.w
 2d6:	e8bd 4008 	ldmia.w	sp!, {r3, lr}
 2da:	f7ff bfcf 	b.w	27c <register_tm_clones>
 2de:	bf00      	nop
 2e0:	00000000 	.word	0x00000000
 2e4:	20000008 	.word	0x20000008
 2e8:	000004e4 	.word	0x000004e4

000002ec <main>:
 2ec:	b480      	push	{r7}
 2ee:	af00      	add	r7, sp, #0
 2f0:	2300      	movs	r3, #0
 2f2:	4618      	mov	r0, r3
 2f4:	46bd      	mov	sp, r7
 2f6:	bc80      	pop	{r7}
 2f8:	4770      	bx	lr
	...

000002fc <Reset_Handler>:
 2fc:	b580      	push	{r7, lr}
 2fe:	b082      	sub	sp, #8
 300:	af00      	add	r7, sp, #0
 302:	4b1c      	ldr	r3, [pc, #112]	@ (374 <Reset_Handler+0x78>)
 304:	607b      	str	r3, [r7, #4]
 306:	4b1c      	ldr	r3, [pc, #112]	@ (378 <Reset_Handler+0x7c>)
 308:	603b      	str	r3, [r7, #0]
 30a:	687a      	ldr	r2, [r7, #4]
 30c:	683b      	ldr	r3, [r7, #0]
 30e:	429a      	cmp	r2, r3
 310:	d00c      	beq.n	32c <Reset_Handler+0x30>
 312:	e007      	b.n	324 <Reset_Handler+0x28>
 314:	687a      	ldr	r2, [r7, #4]
 316:	1d13      	adds	r3, r2, #4
 318:	607b      	str	r3, [r7, #4]
 31a:	683b      	ldr	r3, [r7, #0]
 31c:	1d19      	adds	r1, r3, #4
 31e:	6039      	str	r1, [r7, #0]
 320:	6812      	ldr	r2, [r2, #0]
 322:	601a      	str	r2, [r3, #0]
 324:	683b      	ldr	r3, [r7, #0]
 326:	4a15      	ldr	r2, [pc, #84]	@ (37c <Reset_Handler+0x80>)
 328:	4293      	cmp	r3, r2
 32a:	d3f3      	bcc.n	314 <Reset_Handler+0x18>
 32c:	4b14      	ldr	r3, [pc, #80]	@ (380 <Reset_Handler+0x84>)
 32e:	603b      	str	r3, [r7, #0]
 330:	e004      	b.n	33c <Reset_Handler+0x40>
 332:	683b      	ldr	r3, [r7, #0]
 334:	1d1a      	adds	r2, r3, #4
 336:	603a      	str	r2, [r7, #0]
 338:	2200      	movs	r2, #0
 33a:	601a      	str	r2, [r3, #0]
 33c:	683b      	ldr	r3, [r7, #0]
 33e:	4a11      	ldr	r2, [pc, #68]	@ (384 <Reset_Handler+0x88>)
 340:	4293      	cmp	r3, r2
 342:	d3f6      	bcc.n	332 <Reset_Handler+0x36>
 344:	4b10      	ldr	r3, [pc, #64]	@ (388 <Reset_Handler+0x8c>)
 346:	607b      	str	r3, [r7, #4]
 348:	687b      	ldr	r3, [r7, #4]
 34a:	4a10      	ldr	r2, [pc, #64]	@ (38c <Reset_Handler+0x90>)
 34c:	f023 037f 	bic.w	r3, r3, #127	@ 0x7f
 350:	6093      	str	r3, [r2, #8]
 352:	4b0f      	ldr	r3, [pc, #60]	@ (390 <Reset_Handler+0x94>)
 354:	2b00      	cmp	r3, #0
 356:	d001      	beq.n	35c <Reset_Handler+0x60>
 358:	4b0d      	ldr	r3, [pc, #52]	@ (390 <Reset_Handler+0x94>)
 35a:	4798      	blx	r3
 35c:	f000 f830 	bl	3c0 <__libc_init_array>
 360:	4b0c      	ldr	r3, [pc, #48]	@ (394 <Reset_Handler+0x98>)
 362:	2b00      	cmp	r3, #0
 364:	d001      	beq.n	36a <Reset_Handler+0x6e>
 366:	4b0b      	ldr	r3, [pc, #44]	@ (394 <Reset_Handler+0x98>)
 368:	4798      	blx	r3
 36a:	f7ff ffbf 	bl	2ec <main>
 36e:	bf00      	nop
 370:	e7fd      	b.n	36e <Reset_Handler+0x72>
 372:	bf00      	nop
 374:	000004e4 	.word	0x000004e4
 378:	20000000 	.word	0x20000000
 37c:	20000004 	.word	0x20000004
 380:	20000004 	.word	0x20000004
 384:	200001b8 	.word	0x200001b8
 388:	00000000 	.word	0x00000000
 38c:	e000ed00 	.word	0xe000ed00
	...

00000398 <Dummy_Handler>:
 398:	b480      	push	{r7}
 39a:	af00      	add	r7, sp, #0
 39c:	bf00      	nop
 39e:	e7fd      	b.n	39c <Dummy_Handler+0x4>

000003a0 <register_fini>:
 3a0:	4b02      	ldr	r3, [pc, #8]	@ (3ac <register_fini+0xc>)
 3a2:	b113      	cbz	r3, 3aa <register_fini+0xa>
 3a4:	4802      	ldr	r0, [pc, #8]	@ (3b0 <register_fini+0x10>)
 3a6:	f000 b805 	b.w	3b4 <atexit>
 3aa:	4770      	bx	lr
 3ac:	00000000 	.word	0x00000000
 3b0:	00000411 	.word	0x00000411

000003b4 <atexit>:
 3b4:	2300      	movs	r3, #0
 3b6:	4601      	mov	r1, r0
 3b8:	461a      	mov	r2, r3
 3ba:	4618      	mov	r0, r3
 3bc:	f000 b840 	b.w	440 <__register_exitproc>

000003c0 <__libc_init_array>:
 3c0:	b570      	push	{r4, r5, r6, lr}
 3c2:	4b0f      	ldr	r3, [pc, #60]	@ (400 <__libc_init_array+0x40>)
 3c4:	4d0f      	ldr	r5, [pc, #60]	@ (404 <__libc_init_array+0x44>)
 3c6:	42ab      	cmp	r3, r5
 3c8:	eba3 0605 	sub.w	r6, r3, r5
 3cc:	d007      	beq.n	3de <__libc_init_array+0x1e>
 3ce:	10b6      	asrs	r6, r6, #2
 3d0:	2400      	movs	r4, #0
 3d2:	f855 3b04 	ldr.w	r3, [r5], #4
 3d6:	3401      	adds	r4, #1
 3d8:	4798      	blx	r3
 3da:	42a6      	cmp	r6, r4
 3dc:	d8f9      	bhi.n	3d2 <__libc_init_array+0x12>
 3de:	f000 f86f 	bl	4c0 <_init>
 3e2:	4d09      	ldr	r5, [pc, #36]	@ (408 <__libc_init_array+0x48>)
 3e4:	4b09      	ldr	r3, [pc, #36]	@ (40c <__libc_init_array+0x4c>)
 3e6:	1b5e      	subs	r6, r3, r5
 3e8:	42ab      	cmp	r3, r5
 3ea:	ea4f 06a6 	mov.w	r6, r6, asr #2
 3ee:	d006      	beq.n	3fe <__libc_init_array+0x3e>
 3f0:	2400      	movs	r4, #0
 3f2:	f855 3b04 	ldr.w	r3, [r5], #4
 3f6:	3401      	adds	r4, #1
 3f8:	4798      	blx	r3
 3fa:	42a6      	cmp	r6, r4
 3fc:	d8f9      	bhi.n	3f2 <__libc_init_array+0x32>
 3fe:	bd70      	pop	{r4, r5, r6, pc}
 400:	000004cc 	.word	0x000004cc
 404:	000004cc 	.word	0x000004cc
 408:	000004cc 	.word	0x000004cc
 40c:	000004d4 	.word	0x000004d4

00000410 <__libc_fini_array>:
 410:	b538      	push	{r3, r4, r5, lr}
 412:	4d07      	ldr	r5, [pc, #28]	@ (430 <__libc_fini_array+0x20>)
 414:	4c07      	ldr	r4, [pc, #28]	@ (434 <__libc_fini_array+0x24>)
 416:	1b2c      	subs	r4, r5, r4
 418:	10a4      	asrs	r4, r4, #2
 41a:	d005      	beq.n	428 <__libc_fini_array+0x18>
 41c:	3c01      	subs	r4, #1
 41e:	f855 3d04 	ldr.w	r3, [r5, #-4]!
 422:	4798      	blx	r3
 424:	2c00      	cmp	r4, #0
 426:	d1f9      	bne.n	41c <__libc_fini_array+0xc>
 428:	e8bd 4038 	ldmia.w	sp!, {r3, r4, r5, lr}
 42c:	f000 b852 	b.w	4d4 <_fini>
 430:	000004e4 	.word	0x000004e4
 434:	000004e0 	.word	0x000004e0

00000438 <__retarget_lock_acquire_recursive>:
 438:	4770      	bx	lr
 43a:	bf00      	nop

0000043c <__retarget_lock_release_recursive>:
 43c:	4770      	bx	lr
 43e:	bf00      	nop

00000440 <__register_exitproc>:
 440:	e92d 43f8 	stmdb	sp!, {r3, r4, r5, r6, r7, r8, r9, lr}
 444:	4d1b      	ldr	r5, [pc, #108]	@ (4b4 <__register_exitproc+0x74>)
 446:	4606      	mov	r6, r0
 448:	6828      	ldr	r0, [r5, #0]
 44a:	4698      	mov	r8, r3
 44c:	460f      	mov	r7, r1
 44e:	4691      	mov	r9, r2
 450:	f7ff fff2 	bl	438 <__retarget_lock_acquire_recursive>
 454:	4b18      	ldr	r3, [pc, #96]	@ (4b8 <__register_exitproc+0x78>)
 456:	681c      	ldr	r4, [r3, #0]
 458:	b31c      	cbz	r4, 4a2 <__register_exitproc+0x62>
 45a:	6828      	ldr	r0, [r5, #0]
 45c:	6865      	ldr	r5, [r4, #4]
 45e:	2d1f      	cmp	r5, #31
 460:	dc22      	bgt.n	4a8 <__register_exitproc+0x68>
 462:	b94e      	cbnz	r6, 478 <__register_exitproc+0x38>
 464:	1c6b      	adds	r3, r5, #1
 466:	3502      	adds	r5, #2
 468:	6063      	str	r3, [r4, #4]
 46a:	f844 7025 	str.w	r7, [r4, r5, lsl #2]
 46e:	f7ff ffe5 	bl	43c <__retarget_lock_release_recursive>
 472:	2000      	movs	r0, #0
 474:	e8bd 83f8 	ldmia.w	sp!, {r3, r4, r5, r6, r7, r8, r9, pc}
 478:	eb04 0185 	add.w	r1, r4, r5, lsl #2
 47c:	2301      	movs	r3, #1
 47e:	f8c1 9088 	str.w	r9, [r1, #136]	@ 0x88
 482:	f8d4 2188 	ldr.w	r2, [r4, #392]	@ 0x188
 486:	40ab      	lsls	r3, r5
 488:	431a      	orrs	r2, r3
 48a:	2e02      	cmp	r6, #2
 48c:	f8c4 2188 	str.w	r2, [r4, #392]	@ 0x188
 490:	f8c1 8108 	str.w	r8, [r1, #264]	@ 0x108
 494:	d1e6      	bne.n	464 <__register_exitproc+0x24>
 496:	f8d4 218c 	ldr.w	r2, [r4, #396]	@ 0x18c
 49a:	431a      	orrs	r2, r3
 49c:	f8c4 218c 	str.w	r2, [r4, #396]	@ 0x18c
 4a0:	e7e0      	b.n	464 <__register_exitproc+0x24>
 4a2:	4c06      	ldr	r4, [pc, #24]	@ (4bc <__register_exitproc+0x7c>)
 4a4:	601c      	str	r4, [r3, #0]
 4a6:	e7d8      	b.n	45a <__register_exitproc+0x1a>
 4a8:	f7ff ffc8 	bl	43c <__retarget_lock_release_recursive>
 4ac:	f04f 30ff 	mov.w	r0, #4294967295	@ 0xffffffff
 4b0:	e7e0      	b.n	474 <__register_exitproc+0x34>
 4b2:	bf00      	nop
 4b4:	20000000 	.word	0x20000000
 4b8:	20000020 	.word	0x20000020
 4bc:	20000028 	.word	0x20000028

000004c0 <_init>:
 4c0:	b5f8      	push	{r3, r4, r5, r6, r7, lr}
 4c2:	bf00      	nop
 4c4:	bcf8      	pop	{r3, r4, r5, r6, r7}
 4c6:	bc08      	pop	{r3}
 4c8:	469e      	mov	lr, r3
 4ca:	4770      	bx	lr

000004cc <__init_array_start>:
 4cc:	000003a1 	.word	0x000003a1

000004d0 <__frame_dummy_init_array_entry>:
 4d0:	000002c9                                ....

000004d4 <_fini>:
 4d4:	b5f8      	push	{r3, r4, r5, r6, r7, lr}
 4d6:	bf00      	nop
 4d8:	bcf8      	pop	{r3, r4, r5, r6, r7}
 4da:	bc08      	pop	{r3}
 4dc:	469e      	mov	lr, r3
 4de:	4770      	bx	lr

000004e0 <__do_global_dtors_aux_fini_array_entry>:
 4e0:	02a1 0000                                   ....
